target datalayout = "e-m:e-p270:32:32-p271:32:32-p272:64:64-i64:64-i128:128-f80:128-n8:16:32:64-S128"
target triple = "x86_64-pc-linux-gnu"

%struct.DdManager = type { %struct.DdNode, ptr, ptr, ptr, ptr, ptr, ptr, ptr, i32, i32, double, double, double, i32, i32, i32, i32, i32, i32, ptr, ptr, %struct.DdSubtable, i32, i32, i32, i32, i32, i32, i32, double, i32, i32, i32, ptr, i64, double, i32, ptr, ptr, ptr, ptr, ptr, ptr, ptr, i32, ptr, ptr, ptr, ptr, ptr, ptr, i32, i32, i32, double, i32, i32, i32, i32, double, double, i32, i32, i32, i32, i32, i32, i32, i32, i32, ptr, ptr, i32, i32, i32, i32, i32, i32, ptr, ptr, ptr, ptr, ptr, ptr, ptr, ptr, i32, i64, i64, i64, i32, i64, i64, double, double, double, double, double, double, i32, ptr, ptr, i64 }
%struct.DdNode = type { i32, i32, ptr, %union.anon, i64 }
%union.anon = type { %struct.DdChildren }
%struct.DdChildren = type { ptr, ptr }
%struct.DdSubtable = type { ptr, i32, i32, i32, i32, i32, i32, i32, i32, i32, i32, i32 }

; Function Attrs: nounwind uwtable
define i32 @Cudd_addLeq(ptr noundef %0, ptr noundef %1, ptr noundef %2) #0 {
  %4 = alloca i32, align 4
  %5 = alloca ptr, align 8
  %6 = alloca ptr, align 8
  %7 = alloca ptr, align 8
  %8 = alloca ptr, align 8
  %9 = alloca ptr, align 8
  %10 = alloca ptr, align 8
  %11 = alloca ptr, align 8
  %12 = alloca ptr, align 8
  %13 = alloca i32, align 4
  %14 = alloca i32, align 4
  %15 = alloca i32, align 4
  %16 = alloca i32, align 4
  store ptr %0, ptr %5, align 8, !tbaa !3
  store ptr %1, ptr %6, align 8, !tbaa !8
  store ptr %2, ptr %7, align 8, !tbaa !8
  call void @llvm.lifetime.start.p0(i64 8, ptr %8) #3
  call void @llvm.lifetime.start.p0(i64 8, ptr %9) #3
  call void @llvm.lifetime.start.p0(i64 8, ptr %10) #3
  call void @llvm.lifetime.start.p0(i64 8, ptr %11) #3
  call void @llvm.lifetime.start.p0(i64 8, ptr %12) #3
  call void @llvm.lifetime.start.p0(i64 4, ptr %13) #3
  call void @llvm.lifetime.start.p0(i64 4, ptr %14) #3
  call void @llvm.lifetime.start.p0(i64 4, ptr %15) #3
  %17 = load ptr, ptr %6, align 8, !tbaa !8
  %18 = load ptr, ptr %7, align 8, !tbaa !8
  %19 = icmp eq ptr %17, %18
  br i1 %19, label %20, label %21

20:                                               ; preds = %3
  store i32 1, ptr %4, align 4
  store i32 1, ptr %16, align 4
  br label %182

21:                                               ; preds = %3
  %22 = load ptr, ptr %6, align 8, !tbaa !8
  %23 = getelementptr inbounds nuw %struct.DdNode, ptr %22, i32 0, i32 0
  %24 = load i32, ptr %23, align 8, !tbaa !32
  %25 = icmp eq i32 %24, 2147483647
  br i1 %25, label %26, label %55

26:                                               ; preds = %21
  %27 = load ptr, ptr %7, align 8, !tbaa !8
  %28 = getelementptr inbounds nuw %struct.DdNode, ptr %27, i32 0, i32 0
  %29 = load i32, ptr %28, align 8, !tbaa !32
  %30 = icmp eq i32 %29, 2147483647
  br i1 %30, label %31, label %40

31:                                               ; preds = %26
  %32 = load ptr, ptr %6, align 8, !tbaa !8
  %33 = getelementptr inbounds nuw %struct.DdNode, ptr %32, i32 0, i32 3
  %34 = load double, ptr %33, align 8, !tbaa !34
  %35 = load ptr, ptr %7, align 8, !tbaa !8
  %36 = getelementptr inbounds nuw %struct.DdNode, ptr %35, i32 0, i32 3
  %37 = load double, ptr %36, align 8, !tbaa !34
  %38 = fcmp ole double %34, %37
  %39 = zext i1 %38 to i32
  store i32 %39, ptr %4, align 4
  store i32 1, ptr %16, align 4
  br label %182

40:                                               ; preds = %26
  %41 = load ptr, ptr %6, align 8, !tbaa !8
  %42 = load ptr, ptr %5, align 8, !tbaa !3
  %43 = getelementptr inbounds nuw %struct.DdManager, ptr %42, i32 0, i32 4
  %44 = load ptr, ptr %43, align 8, !tbaa !39
  %45 = icmp eq ptr %41, %44
  br i1 %45, label %46, label %47

46:                                               ; preds = %40
  store i32 1, ptr %4, align 4
  store i32 1, ptr %16, align 4
  br label %182

47:                                               ; preds = %40
  %48 = load ptr, ptr %6, align 8, !tbaa !8
  %49 = load ptr, ptr %5, align 8, !tbaa !3
  %50 = getelementptr inbounds nuw %struct.DdManager, ptr %49, i32 0, i32 3
  %51 = load ptr, ptr %50, align 8, !tbaa !40
  %52 = icmp eq ptr %48, %51
  br i1 %52, label %53, label %54

53:                                               ; preds = %47
  store i32 0, ptr %4, align 4
  store i32 1, ptr %16, align 4
  br label %182

54:                                               ; preds = %47
  br label %55

55:                                               ; preds = %54, %21
  %56 = load ptr, ptr %7, align 8, !tbaa !8
  %57 = load ptr, ptr %5, align 8, !tbaa !3
  %58 = getelementptr inbounds nuw %struct.DdManager, ptr %57, i32 0, i32 3
  %59 = load ptr, ptr %58, align 8, !tbaa !40
  %60 = icmp eq ptr %56, %59
  br i1 %60, label %61, label %62

61:                                               ; preds = %55
  store i32 1, ptr %4, align 4
  store i32 1, ptr %16, align 4
  br label %182

62:                                               ; preds = %55
  %63 = load ptr, ptr %7, align 8, !tbaa !8
  %64 = load ptr, ptr %5, align 8, !tbaa !3
  %65 = getelementptr inbounds nuw %struct.DdManager, ptr %64, i32 0, i32 4
  %66 = load ptr, ptr %65, align 8, !tbaa !39
  %67 = icmp eq ptr %63, %66
  br i1 %67, label %68, label %69

68:                                               ; preds = %62
  store i32 0, ptr %4, align 4
  store i32 1, ptr %16, align 4
  br label %182

69:                                               ; preds = %62
  %70 = load ptr, ptr %5, align 8, !tbaa !3
  %71 = load ptr, ptr %6, align 8, !tbaa !8
  %72 = load ptr, ptr %7, align 8, !tbaa !8
  %73 = call ptr @cuddCacheLookup2(ptr noundef %70, ptr noundef @Cudd_addLeq, ptr noundef %71, ptr noundef %72)
  store ptr %73, ptr %8, align 8, !tbaa !8
  %74 = load ptr, ptr %8, align 8, !tbaa !8
  %75 = icmp ne ptr %74, null
  br i1 %75, label %76, label %83

76:                                               ; preds = %69
  %77 = load ptr, ptr %8, align 8, !tbaa !8
  %78 = load ptr, ptr %5, align 8, !tbaa !3
  %79 = getelementptr inbounds nuw %struct.DdManager, ptr %78, i32 0, i32 1
  %80 = load ptr, ptr %79, align 8, !tbaa !30
  %81 = icmp eq ptr %77, %80
  %82 = zext i1 %81 to i32
  store i32 %82, ptr %4, align 4
  store i32 1, ptr %16, align 4
  br label %182

83:                                               ; preds = %69
  %84 = load ptr, ptr %6, align 8, !tbaa !8
  %85 = getelementptr inbounds nuw %struct.DdNode, ptr %84, i32 0, i32 0
  %86 = load i32, ptr %85, align 8, !tbaa !32
  %87 = icmp eq i32 %86, 2147483647
  br i1 %87, label %88, label %92

88:                                               ; preds = %83
  %89 = load ptr, ptr %6, align 8, !tbaa !8
  %90 = getelementptr inbounds nuw %struct.DdNode, ptr %89, i32 0, i32 0
  %91 = load i32, ptr %90, align 8, !tbaa !32
  br label %102

92:                                               ; preds = %83
  %93 = load ptr, ptr %5, align 8, !tbaa !3
  %94 = getelementptr inbounds nuw %struct.DdManager, ptr %93, i32 0, i32 37
  %95 = load ptr, ptr %94, align 8, !tbaa !33
  %96 = load ptr, ptr %6, align 8, !tbaa !8
  %97 = getelementptr inbounds nuw %struct.DdNode, ptr %96, i32 0, i32 0
  %98 = load i32, ptr %97, align 8, !tbaa !32
  %99 = zext i32 %98 to i64
  %100 = getelementptr inbounds nuw i32, ptr %95, i64 %99
  %101 = load i32, ptr %100, align 4, !tbaa !29
  br label %102

102:                                              ; preds = %92, %88
  %103 = phi i32 [ %91, %88 ], [ %101, %92 ]
  store i32 %103, ptr %13, align 4, !tbaa !29
  %104 = load ptr, ptr %7, align 8, !tbaa !8
  %105 = getelementptr inbounds nuw %struct.DdNode, ptr %104, i32 0, i32 0
  %106 = load i32, ptr %105, align 8, !tbaa !32
  %107 = icmp eq i32 %106, 2147483647
  br i1 %107, label %108, label %112

108:                                              ; preds = %102
  %109 = load ptr, ptr %7, align 8, !tbaa !8
  %110 = getelementptr inbounds nuw %struct.DdNode, ptr %109, i32 0, i32 0
  %111 = load i32, ptr %110, align 8, !tbaa !32
  br label %122

112:                                              ; preds = %102
  %113 = load ptr, ptr %5, align 8, !tbaa !3
  %114 = getelementptr inbounds nuw %struct.DdManager, ptr %113, i32 0, i32 37
  %115 = load ptr, ptr %114, align 8, !tbaa !33
  %116 = load ptr, ptr %7, align 8, !tbaa !8
  %117 = getelementptr inbounds nuw %struct.DdNode, ptr %116, i32 0, i32 0
  %118 = load i32, ptr %117, align 8, !tbaa !32
  %119 = zext i32 %118 to i64
  %120 = getelementptr inbounds nuw i32, ptr %115, i64 %119
  %121 = load i32, ptr %120, align 4, !tbaa !29
  br label %122

122:                                              ; preds = %112, %108
  %123 = phi i32 [ %111, %108 ], [ %121, %112 ]
  store i32 %123, ptr %14, align 4, !tbaa !29
  %124 = load i32, ptr %13, align 4, !tbaa !29
  %125 = load i32, ptr %14, align 4, !tbaa !29
  %126 = icmp ule i32 %124, %125
  br i1 %126, label %127, label %136

127:                                              ; preds = %122
  %128 = load ptr, ptr %6, align 8, !tbaa !8
  %129 = getelementptr inbounds nuw %struct.DdNode, ptr %128, i32 0, i32 3
  %130 = getelementptr inbounds nuw %struct.DdChildren, ptr %129, i32 0, i32 0
  %131 = load ptr, ptr %130, align 8, !tbaa !34
  store ptr %131, ptr %9, align 8, !tbaa !8
  %132 = load ptr, ptr %6, align 8, !tbaa !8
  %133 = getelementptr inbounds nuw %struct.DdNode, ptr %132, i32 0, i32 3
  %134 = getelementptr inbounds nuw %struct.DdChildren, ptr %133, i32 0, i32 1
  %135 = load ptr, ptr %134, align 8, !tbaa !34
  store ptr %135, ptr %10, align 8, !tbaa !8
  br label %138

136:                                              ; preds = %122
  %137 = load ptr, ptr %6, align 8, !tbaa !8
  store ptr %137, ptr %10, align 8, !tbaa !8
  store ptr %137, ptr %9, align 8, !tbaa !8
  br label %138

138:                                              ; preds = %136, %127
  %139 = load i32, ptr %14, align 4, !tbaa !29
  %140 = load i32, ptr %13, align 4, !tbaa !29
  %141 = icmp ule i32 %139, %140
  br i1 %141, label %142, label %151

142:                                              ; preds = %138
  %143 = load ptr, ptr %7, align 8, !tbaa !8
  %144 = getelementptr inbounds nuw %struct.DdNode, ptr %143, i32 0, i32 3
  %145 = getelementptr inbounds nuw %struct.DdChildren, ptr %144, i32 0, i32 0
  %146 = load ptr, ptr %145, align 8, !tbaa !34
  store ptr %146, ptr %11, align 8, !tbaa !8
  %147 = load ptr, ptr %7, align 8, !tbaa !8
  %148 = getelementptr inbounds nuw %struct.DdNode, ptr %147, i32 0, i32 3
  %149 = getelementptr inbounds nuw %struct.DdChildren, ptr %148, i32 0, i32 1
  %150 = load ptr, ptr %149, align 8, !tbaa !34
  store ptr %150, ptr %12, align 8, !tbaa !8
  br label %153

151:                                              ; preds = %138
  %152 = load ptr, ptr %7, align 8, !tbaa !8
  store ptr %152, ptr %12, align 8, !tbaa !8
  store ptr %152, ptr %11, align 8, !tbaa !8
  br label %153

153:                                              ; preds = %151, %142
  %154 = load ptr, ptr %5, align 8, !tbaa !3
  %155 = load ptr, ptr %10, align 8, !tbaa !8
  %156 = load ptr, ptr %12, align 8, !tbaa !8
  %157 = call i32 @Cudd_addLeq(ptr noundef %154, ptr noundef %155, ptr noundef %156)
  %158 = icmp ne i32 %157, 0
  br i1 %158, label %159, label %165

159:                                              ; preds = %153
  %160 = load ptr, ptr %5, align 8, !tbaa !3
  %161 = load ptr, ptr %9, align 8, !tbaa !8
  %162 = load ptr, ptr %11, align 8, !tbaa !8
  %163 = call i32 @Cudd_addLeq(ptr noundef %160, ptr noundef %161, ptr noundef %162)
  %164 = icmp ne i32 %163, 0
  br label %165

165:                                              ; preds = %159, %153
  %166 = phi i1 [ false, %153 ], [ %164, %159 ]
  %167 = zext i1 %166 to i32
  store i32 %167, ptr %15, align 4, !tbaa !29
  %168 = load ptr, ptr %5, align 8, !tbaa !3
  %169 = load ptr, ptr %6, align 8, !tbaa !8
  %170 = load ptr, ptr %7, align 8, !tbaa !8
  %171 = load ptr, ptr %5, align 8, !tbaa !3
  %172 = getelementptr inbounds nuw %struct.DdManager, ptr %171, i32 0, i32 1
  %173 = load ptr, ptr %172, align 8, !tbaa !30
  %174 = ptrtoint ptr %173 to i64
  %175 = load i32, ptr %15, align 4, !tbaa !29
  %176 = icmp eq i32 %175, 0
  %177 = zext i1 %176 to i32
  %178 = sext i32 %177 to i64
  %179 = xor i64 %174, %178
  %180 = inttoptr i64 %179 to ptr
  call void @cuddCacheInsert2(ptr noundef %168, ptr noundef @Cudd_addLeq, ptr noundef %169, ptr noundef %170, ptr noundef %180)
  %181 = load i32, ptr %15, align 4, !tbaa !29
  store i32 %181, ptr %4, align 4
  store i32 1, ptr %16, align 4
  br label %182

182:                                              ; preds = %165, %76, %68, %61, %53, %46, %31, %20
  call void @llvm.lifetime.end.p0(i64 4, ptr %15) #3
  call void @llvm.lifetime.end.p0(i64 4, ptr %14) #3
  call void @llvm.lifetime.end.p0(i64 4, ptr %13) #3
  call void @llvm.lifetime.end.p0(i64 8, ptr %12) #3
  call void @llvm.lifetime.end.p0(i64 8, ptr %11) #3
  call void @llvm.lifetime.end.p0(i64 8, ptr %10) #3
  call void @llvm.lifetime.end.p0(i64 8, ptr %9) #3
  call void @llvm.lifetime.end.p0(i64 8, ptr %8) #3
  %183 = load i32, ptr %4, align 4
  ret i32 %183
}