; Function Attrs: nounwind uwtable
define range(i32 0, 2) i32 @Cudd_addLeq(ptr noundef %0, ptr noundef %1, ptr noundef %2) #0 {
  %4 = icmp eq ptr %1, %2
  br i1 %4, label %85, label %5

5:                                                ; preds = %3
  %6 = load i32, ptr %1, align 8, !tbaa !28
  %7 = icmp eq i32 %6, 2147483647
  br i1 %7, label %8, label %._crit_edge

._crit_edge:                                      ; preds = %5
  %.phi.trans.insert = getelementptr inbounds nuw i8, ptr %0, i64 56
  %.pre = load ptr, ptr %.phi.trans.insert, align 8, !tbaa !35
  br label %26

8:                                                ; preds = %5
  %9 = load i32, ptr %2, align 8, !tbaa !28
  %10 = icmp eq i32 %9, 2147483647
  br i1 %10, label %11, label %18

11:                                               ; preds = %8
  %12 = getelementptr inbounds nuw i8, ptr %1, i64 16
  %13 = load double, ptr %12, align 8, !tbaa !31
  %14 = getelementptr inbounds nuw i8, ptr %2, i64 16
  %15 = load double, ptr %14, align 8, !tbaa !31
  %16 = fcmp ole double %13, %15
  %17 = zext i1 %16 to i32
  br label %85

18:                                               ; preds = %8
  %19 = getelementptr inbounds nuw i8, ptr %0, i64 64
  %20 = load ptr, ptr %19, align 8, !tbaa !36
  %21 = icmp eq ptr %1, %20
  br i1 %21, label %85, label %22

22:                                               ; preds = %18
  %23 = getelementptr inbounds nuw i8, ptr %0, i64 56
  %24 = load ptr, ptr %23, align 8, !tbaa !35
  %25 = icmp eq ptr %1, %24
  br i1 %25, label %85, label %26

26:                                               ; preds = %._crit_edge, %22
  %27 = phi ptr [ %.pre, %._crit_edge ], [ %24, %22 ]
  %28 = icmp eq ptr %2, %27
  br i1 %28, label %85, label %29

29:                                               ; preds = %26
  %30 = getelementptr inbounds nuw i8, ptr %0, i64 64
  %31 = load ptr, ptr %30, align 8, !tbaa !36
  %32 = icmp eq ptr %2, %31
  br i1 %32, label %85, label %33

33:                                               ; preds = %29
  %34 = tail call ptr @cuddCacheLookup2(ptr noundef nonnull %0, ptr noundef nonnull @Cudd_addLeq, ptr noundef nonnull %1, ptr noundef %2) #3
  %.not = icmp eq ptr %34, null
  br i1 %.not, label %40, label %35

35:                                               ; preds = %33
  %36 = getelementptr inbounds nuw i8, ptr %0, i64 40
  %37 = load ptr, ptr %36, align 8, !tbaa !26
  %38 = icmp eq ptr %34, %37
  %39 = zext i1 %38 to i32
  br label %85

40:                                               ; preds = %33
  %41 = load i32, ptr %1, align 8, !tbaa !28
  %42 = icmp eq i32 %41, 2147483647
  br i1 %42, label %49, label %43

43:                                               ; preds = %40
  %44 = getelementptr inbounds nuw i8, ptr %0, i64 312
  %45 = load ptr, ptr %44, align 8, !tbaa !29
  %46 = zext i32 %41 to i64
  %47 = getelementptr inbounds nuw i32, ptr %45, i64 %46
  %48 = load i32, ptr %47, align 4, !tbaa !30
  br label %49

49:                                               ; preds = %40, %43
  %50 = phi i32 [ %48, %43 ], [ 2147483647, %40 ]
  %51 = load i32, ptr %2, align 8, !tbaa !28
  %52 = icmp eq i32 %51, 2147483647
  br i1 %52, label %59, label %53

53:                                               ; preds = %49
  %54 = getelementptr inbounds nuw i8, ptr %0, i64 312
  %55 = load ptr, ptr %54, align 8, !tbaa !29
  %56 = zext i32 %51 to i64
  %57 = getelementptr inbounds nuw i32, ptr %55, i64 %56
  %58 = load i32, ptr %57, align 4, !tbaa !30
  br label %59

59:                                               ; preds = %49, %53
  %60 = phi i32 [ %58, %53 ], [ 2147483647, %49 ]
  %.not60 = icmp ugt i32 %50, %60
  br i1 %.not60, label %66, label %61

61:                                               ; preds = %59
  %62 = getelementptr inbounds nuw i8, ptr %1, i64 16
  %63 = load ptr, ptr %62, align 8, !tbaa !31
  %64 = getelementptr inbounds nuw i8, ptr %1, i64 24
  %65 = load ptr, ptr %64, align 8, !tbaa !31
  br label %66

66:                                               ; preds = %59, %61
  %.051 = phi ptr [ %65, %61 ], [ %1, %59 ]
  %.050 = phi ptr [ %63, %61 ], [ %1, %59 ]
  %.not61 = icmp ugt i32 %60, %50
  br i1 %.not61, label %72, label %67

67:                                               ; preds = %66
  %68 = getelementptr inbounds nuw i8, ptr %2, i64 16
  %69 = load ptr, ptr %68, align 8, !tbaa !31
  %70 = getelementptr inbounds nuw i8, ptr %2, i64 24
  %71 = load ptr, ptr %70, align 8, !tbaa !31
  br label %72

72:                                               ; preds = %66, %67
  %.053 = phi ptr [ %69, %67 ], [ %2, %66 ]
  %.052 = phi ptr [ %71, %67 ], [ %2, %66 ]
  %73 = tail call i32 @Cudd_addLeq(ptr noundef nonnull %0, ptr noundef %.051, ptr noundef %.052)
  %.not62 = icmp eq i32 %73, 0
  br i1 %.not62, label %76, label %74

74:                                               ; preds = %72
  %75 = tail call i32 @Cudd_addLeq(ptr noundef nonnull %0, ptr noundef %.050, ptr noundef %.053)
  br label %76

76:                                               ; preds = %74, %72
  %77 = phi i32 [ 0, %72 ], [ %75, %74 ]
  %78 = getelementptr inbounds nuw i8, ptr %0, i64 40
  %79 = load ptr, ptr %78, align 8, !tbaa !26
  %80 = ptrtoint ptr %79 to i64
  %81 = xor i32 %77, 1
  %82 = zext nneg i32 %81 to i64
  %83 = xor i64 %80, %82
  %84 = inttoptr i64 %83 to ptr
  tail call void @cuddCacheInsert2(ptr noundef nonnull %0, ptr noundef nonnull @Cudd_addLeq, ptr noundef nonnull %1, ptr noundef nonnull %2, ptr noundef %84) #3
  br label %85

85:                                               ; preds = %29, %26, %22, %18, %3, %76, %35, %11
  %.0 = phi i32 [ %17, %11 ], [ %39, %35 ], [ %77, %76 ], [ 1, %3 ], [ 1, %18 ], [ 0, %22 ], [ 1, %26 ], [ 0, %29 ]
  ret i32 %.0
}